; Function Attrs: nounwind uwtable
define ptr @l_Lean_RBNode_depth___rarg(ptr noundef %0, ptr noundef %1) local_unnamed_addr #1 {
  %3 = ptrtoint ptr %1 to i64
  %4 = and i64 %3, 1
  %.not.i23 = icmp eq i64 %4, 0
  br i1 %.not.i23, label %8, label %5

5:                                                ; preds = %2
  %6 = lshr i64 %3, 1
  %7 = trunc i64 %6 to i32
  br label %lean_obj_tag.exit

8:                                                ; preds = %2
  %9 = getelementptr i8, ptr %1, i64 4
  %.val.i = load i32, ptr %9, align 4
  %10 = lshr i32 %.val.i, 24
  br label %lean_obj_tag.exit

lean_obj_tag.exit:                                ; preds = %5, %8
  %.0.i24 = phi i32 [ %7, %5 ], [ %10, %8 ]
  %11 = icmp eq i32 %.0.i24, 0
  br i1 %11, label %12, label %22

12:                                               ; preds = %lean_obj_tag.exit
  %13 = ptrtoint ptr %0 to i64
  %14 = and i64 %13, 1
  %.not34 = icmp eq i64 %14, 0
  br i1 %.not34, label %15, label %lean_dec.exit19

15:                                               ; preds = %12
  %16 = load i32, ptr %0, align 4, !tbaa !4
  %17 = icmp sgt i32 %16, 1
  br i1 %17, label %18, label %20, !prof !9

18:                                               ; preds = %15
  %19 = add nsw i32 %16, -1
  store i32 %19, ptr %0, align 4, !tbaa !4
  br label %lean_dec.exit19

20:                                               ; preds = %15
  %.not.i = icmp eq i32 %16, 0
  br i1 %.not.i, label %lean_dec.exit19, label %21

21:                                               ; preds = %20
  tail call void @lean_dec_ref_cold(ptr noundef nonnull %0) #9
  br label %lean_dec.exit19

22:                                               ; preds = %lean_obj_tag.exit
  %23 = getelementptr inbounds nuw i8, ptr %1, i64 8
  %24 = load ptr, ptr %23, align 8, !tbaa !10
  %25 = getelementptr inbounds nuw i8, ptr %1, i64 32
  %26 = load ptr, ptr %25, align 8, !tbaa !10
  %27 = ptrtoint ptr %0 to i64
  %28 = and i64 %27, 1
  %.not = icmp eq i64 %28, 0
  br i1 %.not, label %29, label %lean_inc.exit20

29:                                               ; preds = %22
  %.val.i25 = load i32, ptr %0, align 4, !tbaa !4
  %30 = icmp sgt i32 %.val.i25, 0
  br i1 %30, label %31, label %33, !prof !9

31:                                               ; preds = %29
  %32 = add nuw i32 %.val.i25, 1
  store i32 %32, ptr %0, align 4, !tbaa !4
  br label %36

33:                                               ; preds = %29
  %.not.i26 = icmp eq i32 %.val.i25, 0
  br i1 %.not.i26, label %36, label %34

34:                                               ; preds = %33
  tail call void @lean_inc_ref_cold(ptr noundef nonnull %0) #9
  br label %36

lean_inc.exit20:                                  ; preds = %22
  %35 = tail call ptr @l_Lean_RBNode_depth___rarg(ptr noundef %0, ptr noundef %24)
  br label %lean_inc.exit

36:                                               ; preds = %34, %33, %31
  %37 = tail call ptr @l_Lean_RBNode_depth___rarg(ptr noundef nonnull %0, ptr noundef %24)
  %.val.i27 = load i32, ptr %0, align 4, !tbaa !4
  %38 = icmp sgt i32 %.val.i27, 0
  br i1 %38, label %39, label %41, !prof !9

39:                                               ; preds = %36
  %40 = add nuw i32 %.val.i27, 1
  store i32 %40, ptr %0, align 4, !tbaa !4
  br label %lean_inc.exit

41:                                               ; preds = %36
  %.not.i28 = icmp eq i32 %.val.i27, 0
  br i1 %.not.i28, label %lean_inc.exit, label %42

42:                                               ; preds = %41
  tail call void @lean_inc_ref_cold(ptr noundef nonnull %0) #9
  br label %lean_inc.exit

lean_inc.exit:                                    ; preds = %42, %41, %39, %lean_inc.exit20
  %43 = phi ptr [ %35, %lean_inc.exit20 ], [ %37, %39 ], [ %37, %41 ], [ %37, %42 ]
  %44 = tail call ptr @l_Lean_RBNode_depth___rarg(ptr noundef %0, ptr noundef %26)
  %45 = tail call ptr @lean_apply_2(ptr noundef %0, ptr noundef %43, ptr noundef %44) #9
  %46 = ptrtoint ptr %45 to i64
  %47 = and i64 %46, 1
  %.not33 = icmp eq i64 %47, 0
  br i1 %.not33, label %58, label %48, !prof !15

48:                                               ; preds = %lean_inc.exit
  %49 = lshr i64 %46, 1
  %50 = add nuw i64 %49, 1
  %51 = icmp sgt i64 %50, -1
  br i1 %51, label %52, label %56, !prof !9

52:                                               ; preds = %48
  %53 = shl nuw i64 %50, 1
  %54 = or disjoint i64 %53, 1
  %55 = inttoptr i64 %54 to ptr
  br label %lean_dec.exit19

56:                                               ; preds = %48
  %57 = tail call ptr @lean_big_usize_to_nat(i64 noundef range(i64 0, -1) %50) #9
  br label %lean_dec.exit19

58:                                               ; preds = %lean_inc.exit
  %59 = tail call ptr @lean_nat_big_add(ptr noundef %45, ptr noundef nonnull inttoptr (i64 3 to ptr)) #9
  %60 = load i32, ptr %45, align 4, !tbaa !4
  %61 = icmp sgt i32 %60, 1
  br i1 %61, label %62, label %64, !prof !9

62:                                               ; preds = %58
  %63 = add nsw i32 %60, -1
  store i32 %63, ptr %45, align 4, !tbaa !4
  br label %lean_dec.exit19

64:                                               ; preds = %58
  %.not.i21 = icmp eq i32 %60, 0
  br i1 %.not.i21, label %lean_dec.exit19, label %65

65:                                               ; preds = %64
  tail call void @lean_dec_ref_cold(ptr noundef nonnull %45) #9
  br label %lean_dec.exit19

lean_dec.exit19:                                  ; preds = %52, %56, %62, %64, %65, %12, %18, %20, %21
  %.0 = phi ptr [ inttoptr (i64 1 to ptr), %21 ], [ inttoptr (i64 1 to ptr), %20 ], [ inttoptr (i64 1 to ptr), %18 ], [ inttoptr (i64 1 to ptr), %12 ], [ %59, %62 ], [ %59, %64 ], [ %59, %65 ], [ %57, %56 ], [ %55, %52 ]
  ret ptr %.0
}